target datalayout = "e-m:e-p270:32:32-p271:32:32-p272:64:64-i64:64-i128:128-f80:128-n8:16:32:64-S128"
target triple = "x86_64-pc-linux-gnu"

@_ZN3smt10theory_lraC1ERNS_7contextE = hidden unnamed_addr alias void (ptr, ptr), ptr @_ZN3smt10theory_lraC2ERNS_7contextE

; Function Attrs: mustprogress uwtable
define hidden noundef ptr @_ZN3smt10theory_lra8mk_freshEPNS_7contextE(ptr noundef nonnull align 8 dereferenceable(72) %0, ptr noundef %1) unnamed_addr #6 align 2 {
  %3 = alloca ptr, align 8
  %4 = alloca ptr, align 8
  store ptr %0, ptr %3, align 8, !tbaa !28
  store ptr %1, ptr %4, align 8, !tbaa !30
  %5 = call noalias noundef ptr @_ZN6memory8allocateEm(i64 noundef 72)
  %6 = load ptr, ptr %4, align 8, !tbaa !30
  call void @_ZN3smt10theory_lraC1ERNS_7contextE(ptr noundef nonnull align 8 dereferenceable(72) %5, ptr noundef nonnull align 8 dereferenceable(10544) %6)
  ret ptr %5
}