; Function Attrs: mustprogress uwtable
define hidden noundef ptr @_ZN3smt10theory_lra8mk_freshEPNS_7contextE(ptr nonnull readnone align 8 captures(none) %0, ptr noundef %1) unnamed_addr #4 align 2 personality ptr @__gxx_personality_v0 {
  %3 = alloca %class.symbol, align 8
  %4 = tail call noalias noundef ptr @_ZN6memory8allocateEm(i64 noundef 72)
  %5 = getelementptr inbounds nuw i8, ptr %1, i64 104
  %6 = load ptr, ptr %5, align 8, !tbaa !3
  call void @llvm.lifetime.start.p0(i64 8, ptr nonnull %3) #27
  call void @_ZN6symbolC1EPKc(ptr noundef nonnull align 8 dereferenceable(8) %3, ptr noundef nonnull @.str)
  %7 = getelementptr inbounds nuw i8, ptr %6, i64 560
  %8 = call noundef i32 @_ZNK14family_manager13get_family_idERK6symbol(ptr noundef nonnull align 8 dereferenceable(56) %7, ptr noundef nonnull align 8 dereferenceable(8) %3)
  call void @llvm.lifetime.end.p0(i64 8, ptr nonnull %3) #27
  call void @_ZN3smt6theoryC2ERNS_7contextEi(ptr noundef nonnull align 8 dereferenceable(72) %4, ptr noundef nonnull align 8 dereferenceable(10544) %1, i32 noundef %8)
  %9 = getelementptr inbounds nuw i8, ptr %4, i64 56
  store ptr getelementptr inbounds nuw inrange(-16, 416) (i8, ptr @_ZTVN3smt10theory_lraE, i64 16), ptr %4, align 8, !tbaa !504
  store ptr getelementptr inbounds nuw inrange(-16, 40) (i8, ptr @_ZTVN3smt10theory_lraE, i64 448), ptr %9, align 8, !tbaa !504
  %10 = invoke noalias noundef ptr @_ZN6memory8allocateEm(i64 noundef 928)
          to label %11 unwind label %13

11:                                               ; preds = %2
  %12 = load ptr, ptr %5, align 8, !tbaa !3
  invoke void @_ZN3smt10theory_lra3impC2ERS0_R11ast_manager(ptr noundef nonnull align 8 dereferenceable(928) %10, ptr noundef nonnull align 8 dereferenceable(72) %4, ptr noundef nonnull align 8 dereferenceable(976) %12)
          to label %_ZN3smt10theory_lraC2ERNS_7contextE.exit unwind label %13

13:                                               ; preds = %11, %2
  %14 = landingpad { ptr, i32 }
          cleanup
  call void @_ZN3smt6theoryD2Ev(ptr noundef nonnull align 8 dereferenceable(72) %4) #27
  resume { ptr, i32 } %14

_ZN3smt10theory_lraC2ERNS_7contextE.exit:         ; preds = %11
  %15 = getelementptr inbounds nuw i8, ptr %4, i64 64
  store ptr %10, ptr %15, align 8, !tbaa !506
  ret ptr %4
}